target datalayout = "e-m:e-p270:32:32-p271:32:32-p272:64:64-i64:64-i128:128-f80:128-n8:16:32:64-S128"
target triple = "x86_64-pc-linux-gnu"

%struct.pcre2_real_match_data_8 = type { %struct.pcre2_memctl, ptr, ptr, ptr, ptr, i64, i64, i64, i64, i64, i8, i8, i16, i32, [131072 x i64] }
%struct.pcre2_memctl = type { ptr, ptr, ptr }

; Function Attrs: nounwind uwtable
define i32 @php_pcre2_substring_list_get(ptr noundef %0, ptr noundef %1, ptr noundef %2) #0 {
  %4 = alloca i32, align 4
  %5 = alloca ptr, align 8
  %6 = alloca ptr, align 8
  %7 = alloca ptr, align 8
  %8 = alloca i32, align 4
  %9 = alloca i32, align 4
  %10 = alloca i32, align 4
  %11 = alloca i64, align 8
  %12 = alloca ptr, align 8
  %13 = alloca ptr, align 8
  %14 = alloca ptr, align 8
  %15 = alloca ptr, align 8
  %16 = alloca ptr, align 8
  store ptr %0, ptr %5, align 8
  store ptr %1, ptr %6, align 8
  store ptr %2, ptr %7, align 8
  %17 = load ptr, ptr %5, align 8
  %18 = getelementptr inbounds %struct.pcre2_real_match_data_8, ptr %17, i32 0, i32 13
  %19 = load i32, ptr %18, align 4
  store i32 %19, ptr %9, align 4
  %20 = icmp slt i32 %19, 0
  br i1 %20, label %21, label %23

21:                                               ; preds = %3
  %22 = load i32, ptr %9, align 4
  store i32 %22, ptr %4, align 4
  br label %184

23:                                               ; preds = %3
  %24 = load i32, ptr %9, align 4
  %25 = icmp eq i32 %24, 0
  br i1 %25, label %26, label %31

26:                                               ; preds = %23
  %27 = load ptr, ptr %5, align 8
  %28 = getelementptr inbounds %struct.pcre2_real_match_data_8, ptr %27, i32 0, i32 12
  %29 = load i16, ptr %28, align 2
  %30 = zext i16 %29 to i32
  store i32 %30, ptr %9, align 4
  br label %31

31:                                               ; preds = %26, %23
  %32 = load i32, ptr %9, align 4
  %33 = mul nsw i32 2, %32
  store i32 %33, ptr %10, align 4
  %34 = load ptr, ptr %5, align 8
  %35 = getelementptr inbounds %struct.pcre2_real_match_data_8, ptr %34, i32 0, i32 14
  %36 = getelementptr inbounds [131072 x i64], ptr %35, i64 0, i64 0
  store ptr %36, ptr %16, align 8
  store i64 32, ptr %11, align 8
  %37 = load ptr, ptr %7, align 8
  %38 = icmp ne ptr %37, null
  br i1 %38, label %39, label %45

39:                                               ; preds = %31
  %40 = load i32, ptr %9, align 4
  %41 = sext i32 %40 to i64
  %42 = mul i64 8, %41
  %43 = load i64, ptr %11, align 8
  %44 = add i64 %43, %42
  store i64 %44, ptr %11, align 8
  br label %45

45:                                               ; preds = %39, %31
  store i32 0, ptr %8, align 4
  br label %46

46:                                               ; preds = %82, %45
  %47 = load i32, ptr %8, align 4
  %48 = load i32, ptr %10, align 4
  %49 = icmp slt i32 %47, %48
  br i1 %49, label %50, label %85

50:                                               ; preds = %46
  %51 = load i64, ptr %11, align 8
  %52 = add i64 %51, 9
  store i64 %52, ptr %11, align 8
  %53 = load ptr, ptr %16, align 8
  %54 = load i32, ptr %8, align 4
  %55 = add nsw i32 %54, 1
  %56 = sext i32 %55 to i64
  %57 = getelementptr inbounds i64, ptr %53, i64 %56
  %58 = load i64, ptr %57, align 8
  %59 = load ptr, ptr %16, align 8
  %60 = load i32, ptr %8, align 4
  %61 = sext i32 %60 to i64
  %62 = getelementptr inbounds i64, ptr %59, i64 %61
  %63 = load i64, ptr %62, align 8
  %64 = icmp ugt i64 %58, %63
  br i1 %64, label %65, label %81

65:                                               ; preds = %50
  %66 = load ptr, ptr %16, align 8
  %67 = load i32, ptr %8, align 4
  %68 = add nsw i32 %67, 1
  %69 = sext i32 %68 to i64
  %70 = getelementptr inbounds i64, ptr %66, i64 %69
  %71 = load i64, ptr %70, align 8
  %72 = load ptr, ptr %16, align 8
  %73 = load i32, ptr %8, align 4
  %74 = sext i32 %73 to i64
  %75 = getelementptr inbounds i64, ptr %72, i64 %74
  %76 = load i64, ptr %75, align 8
  %77 = sub i64 %71, %76
  %78 = mul i64 %77, 1
  %79 = load i64, ptr %11, align 8
  %80 = add i64 %79, %78
  store i64 %80, ptr %11, align 8
  br label %81

81:                                               ; preds = %65, %50
  br label %82

82:                                               ; preds = %81
  %83 = load i32, ptr %8, align 4
  %84 = add nsw i32 %83, 2
  store i32 %84, ptr %8, align 4
  br label %46

85:                                               ; preds = %46
  %86 = load i64, ptr %11, align 8
  %87 = load ptr, ptr %5, align 8
  %88 = call ptr @_pcre2_memctl_malloc_8(i64 noundef %86, ptr noundef %87)
  store ptr %88, ptr %13, align 8
  %89 = load ptr, ptr %13, align 8
  %90 = icmp eq ptr %89, null
  br i1 %90, label %91, label %92

91:                                               ; preds = %85
  store i32 -48, ptr %4, align 4
  br label %184

92:                                               ; preds = %85
  %93 = load ptr, ptr %13, align 8
  %94 = getelementptr inbounds i8, ptr %93, i64 24
  store ptr %94, ptr %14, align 8
  %95 = load ptr, ptr %6, align 8
  store ptr %94, ptr %95, align 8
  %96 = load ptr, ptr %14, align 8
  %97 = load i32, ptr %9, align 4
  %98 = add nsw i32 %97, 1
  %99 = sext i32 %98 to i64
  %100 = mul i64 8, %99
  %101 = getelementptr inbounds i8, ptr %96, i64 %100
  store ptr %101, ptr %12, align 8
  %102 = load ptr, ptr %7, align 8
  %103 = icmp eq ptr %102, null
  br i1 %103, label %104, label %106

104:                                              ; preds = %92
  %105 = load ptr, ptr %12, align 8
  store ptr %105, ptr %15, align 8
  store ptr null, ptr %12, align 8
  br label %114

106:                                              ; preds = %92
  %107 = load ptr, ptr %12, align 8
  %108 = load ptr, ptr %7, align 8
  store ptr %107, ptr %108, align 8
  %109 = load ptr, ptr %12, align 8
  %110 = load i32, ptr %9, align 4
  %111 = sext i32 %110 to i64
  %112 = mul i64 8, %111
  %113 = getelementptr inbounds i8, ptr %109, i64 %112
  store ptr %113, ptr %15, align 8
  br label %114

114:                                              ; preds = %106, %104
  store i32 0, ptr %8, align 4
  br label %115

115:                                              ; preds = %179, %114
  %116 = load i32, ptr %8, align 4
  %117 = load i32, ptr %10, align 4
  %118 = icmp slt i32 %116, %117
  br i1 %118, label %119, label %182

119:                                              ; preds = %115
  %120 = load ptr, ptr %16, align 8
  %121 = load i32, ptr %8, align 4
  %122 = add nsw i32 %121, 1
  %123 = sext i32 %122 to i64
  %124 = getelementptr inbounds i64, ptr %120, i64 %123
  %125 = load i64, ptr %124, align 8
  %126 = load ptr, ptr %16, align 8
  %127 = load i32, ptr %8, align 4
  %128 = sext i32 %127 to i64
  %129 = getelementptr inbounds i64, ptr %126, i64 %128
  %130 = load i64, ptr %129, align 8
  %131 = icmp ugt i64 %125, %130
  br i1 %131, label %132, label %145

132:                                              ; preds = %119
  %133 = load ptr, ptr %16, align 8
  %134 = load i32, ptr %8, align 4
  %135 = add nsw i32 %134, 1
  %136 = sext i32 %135 to i64
  %137 = getelementptr inbounds i64, ptr %133, i64 %136
  %138 = load i64, ptr %137, align 8
  %139 = load ptr, ptr %16, align 8
  %140 = load i32, ptr %8, align 4
  %141 = sext i32 %140 to i64
  %142 = getelementptr inbounds i64, ptr %139, i64 %141
  %143 = load i64, ptr %142, align 8
  %144 = sub i64 %138, %143
  br label %146

145:                                              ; preds = %119
  br label %146

146:                                              ; preds = %145, %132
  %147 = phi i64 [ %144, %132 ], [ 0, %145 ]
  store i64 %147, ptr %11, align 8
  %148 = load i64, ptr %11, align 8
  %149 = icmp ne i64 %148, 0
  br i1 %149, label %150, label %163

150:                                              ; preds = %146
  %151 = load ptr, ptr %15, align 8
  %152 = load ptr, ptr %5, align 8
  %153 = getelementptr inbounds %struct.pcre2_real_match_data_8, ptr %152, i32 0, i32 2
  %154 = load ptr, ptr %153, align 8
  %155 = load ptr, ptr %16, align 8
  %156 = load i32, ptr %8, align 4
  %157 = sext i32 %156 to i64
  %158 = getelementptr inbounds i64, ptr %155, i64 %157
  %159 = load i64, ptr %158, align 8
  %160 = getelementptr inbounds i8, ptr %154, i64 %159
  %161 = load i64, ptr %11, align 8
  %162 = mul i64 %161, 1
  call void @llvm.memcpy.p0.p0.i64(ptr align 1 %151, ptr align 1 %160, i64 %162, i1 false)
  br label %163

163:                                              ; preds = %150, %146
  %164 = load ptr, ptr %15, align 8
  %165 = load ptr, ptr %14, align 8
  %166 = getelementptr inbounds ptr, ptr %165, i32 1
  store ptr %166, ptr %14, align 8
  store ptr %164, ptr %165, align 8
  %167 = load ptr, ptr %12, align 8
  %168 = icmp ne ptr %167, null
  br i1 %168, label %169, label %173

169:                                              ; preds = %163
  %170 = load i64, ptr %11, align 8
  %171 = load ptr, ptr %12, align 8
  %172 = getelementptr inbounds i64, ptr %171, i32 1
  store ptr %172, ptr %12, align 8
  store i64 %170, ptr %171, align 8
  br label %173

173:                                              ; preds = %169, %163
  %174 = load i64, ptr %11, align 8
  %175 = load ptr, ptr %15, align 8
  %176 = getelementptr inbounds i8, ptr %175, i64 %174
  store ptr %176, ptr %15, align 8
  %177 = load ptr, ptr %15, align 8
  %178 = getelementptr inbounds i8, ptr %177, i32 1
  store ptr %178, ptr %15, align 8
  store i8 0, ptr %177, align 1
  br label %179

179:                                              ; preds = %173
  %180 = load i32, ptr %8, align 4
  %181 = add nsw i32 %180, 2
  store i32 %181, ptr %8, align 4
  br label %115

182:                                              ; preds = %115
  %183 = load ptr, ptr %14, align 8
  store ptr null, ptr %183, align 8
  store i32 0, ptr %4, align 4
  br label %184

184:                                              ; preds = %182, %91, %21
  %185 = load i32, ptr %4, align 4
  ret i32 %185
}