; Function Attrs: nounwind uwtable
define i32 @php_pcre2_substring_list_get(ptr noundef %0, ptr nocapture noundef writeonly %1, ptr noundef writeonly %2) local_unnamed_addr #0 {
  %4 = getelementptr inbounds i8, ptr %0, i64 100
  %5 = load i32, ptr %4, align 4
  %6 = icmp slt i32 %5, 0
  br i1 %6, label %68, label %7

7:                                                ; preds = %3
  %8 = icmp eq i32 %5, 0
  br i1 %8, label %13, label %.thread

.thread:                                          ; preds = %7
  %9 = getelementptr inbounds i8, ptr %0, i64 104
  %.not100 = icmp eq ptr %2, null
  %10 = zext nneg i32 %5 to i64
  %11 = shl nuw nsw i64 %10, 3
  %12 = add nuw nsw i64 %11, 32
  %.067101 = select i1 %.not100, i64 32, i64 %12
  br label %.lr.ph.preheader

13:                                               ; preds = %7
  %14 = getelementptr inbounds i8, ptr %0, i64 98
  %15 = load i16, ptr %14, align 2
  %16 = zext i16 %15 to i32
  %17 = getelementptr inbounds i8, ptr %0, i64 104
  %.not = icmp eq ptr %2, null
  %18 = zext i16 %15 to i64
  %19 = shl nuw nsw i64 %18, 3
  %20 = add nuw nsw i64 %19, 32
  %.067 = select i1 %.not, i64 32, i64 %20
  %.not93 = icmp eq i16 %15, 0
  br i1 %.not93, label %._crit_edge, label %.lr.ph.preheader

.lr.ph.preheader:                                 ; preds = %.thread, %13
  %.067107 = phi i64 [ %.067101, %.thread ], [ %.067, %13 ]
  %21 = phi i64 [ %11, %.thread ], [ %19, %13 ]
  %.not105 = phi i1 [ %.not100, %.thread ], [ %.not, %13 ]
  %22 = phi ptr [ %9, %.thread ], [ %17, %13 ]
  %.070103 = phi i32 [ %5, %.thread ], [ %16, %13 ]
  %23 = shl nuw nsw i32 %.070103, 1
  %24 = zext nneg i32 %23 to i64
  %25 = getelementptr inbounds i8, ptr %0, i64 104
  %26 = getelementptr inbounds i8, ptr %0, i64 104
  br label %.lr.ph

.lr.ph:                                           ; preds = %.lr.ph.preheader, %.lr.ph
  %indvars.iv = phi i64 [ 0, %.lr.ph.preheader ], [ %indvars.iv.next, %.lr.ph ]
  %.16883 = phi i64 [ %.067107, %.lr.ph.preheader ], [ %.269, %.lr.ph ]
  %27 = add i64 %.16883, 9
  %28 = or disjoint i64 %indvars.iv, 1
  %29 = getelementptr inbounds i64, ptr %26, i64 %28
  %30 = load i64, ptr %29, align 8
  %31 = getelementptr inbounds i64, ptr %25, i64 %indvars.iv
  %32 = load i64, ptr %31, align 8
  %33 = tail call i64 @llvm.usub.sat.i64(i64 %30, i64 %32)
  %.269 = add i64 %27, %33
  %indvars.iv.next = add nuw nsw i64 %indvars.iv, 2
  %34 = icmp ult i64 %indvars.iv.next, %24
  br i1 %34, label %.lr.ph, label %._crit_edge.loopexit

._crit_edge.loopexit:                             ; preds = %.lr.ph
  %35 = add nuw nsw i32 %.070103, 1
  %36 = zext nneg i32 %35 to i64
  %37 = shl nuw nsw i64 %36, 3
  %38 = zext nneg i32 %23 to i64
  br label %._crit_edge

._crit_edge:                                      ; preds = %._crit_edge.loopexit, %13
  %.not93109 = phi i1 [ true, %13 ], [ false, %._crit_edge.loopexit ]
  %39 = phi i64 [ %19, %13 ], [ %21, %._crit_edge.loopexit ]
  %.not106 = phi i1 [ %.not, %13 ], [ %.not105, %._crit_edge.loopexit ]
  %40 = phi ptr [ %17, %13 ], [ %22, %._crit_edge.loopexit ]
  %41 = phi i64 [ 0, %13 ], [ %38, %._crit_edge.loopexit ]
  %.070104 = phi i64 [ 8, %13 ], [ %37, %._crit_edge.loopexit ]
  %.168.lcssa = phi i64 [ %.067, %13 ], [ %.269, %._crit_edge.loopexit ]
  %42 = tail call ptr @_pcre2_memctl_malloc_8(i64 noundef %.168.lcssa, ptr noundef nonnull %0) #6
  %43 = icmp eq ptr %42, null
  br i1 %43, label %68, label %44

44:                                               ; preds = %._crit_edge
  %45 = getelementptr inbounds i8, ptr %42, i64 24
  store ptr %45, ptr %1, align 8
  %46 = getelementptr inbounds i8, ptr %45, i64 %.070104
  br i1 %.not106, label %49, label %47

47:                                               ; preds = %44
  store ptr %46, ptr %2, align 8
  %48 = getelementptr inbounds i8, ptr %46, i64 %39
  br label %49

49:                                               ; preds = %44, %47
  %.065 = phi ptr [ %46, %47 ], [ null, %44 ]
  %.061 = phi ptr [ %48, %47 ], [ %46, %44 ]
  br i1 %.not93109, label %._crit_edge91, label %.lr.ph90

.lr.ph90:                                         ; preds = %49
  %50 = getelementptr inbounds i8, ptr %0, i64 32
  br label %51

51:                                               ; preds = %.lr.ph90, %64
  %indvars.iv96 = phi i64 [ 0, %.lr.ph90 ], [ %indvars.iv.next97, %64 ]
  %.188 = phi ptr [ %.061, %.lr.ph90 ], [ %66, %64 ]
  %.06287 = phi ptr [ %45, %.lr.ph90 ], [ %61, %64 ]
  %.16685 = phi ptr [ %.065, %.lr.ph90 ], [ %.2, %64 ]
  %52 = or disjoint i64 %indvars.iv96, 1
  %53 = getelementptr inbounds i64, ptr %40, i64 %52
  %54 = load i64, ptr %53, align 8
  %55 = getelementptr inbounds i64, ptr %40, i64 %indvars.iv96
  %56 = load i64, ptr %55, align 8
  %spec.select = tail call i64 @llvm.usub.sat.i64(i64 %54, i64 %56)
  %.not81.not = icmp ugt i64 %54, %56
  br i1 %.not81.not, label %57, label %60

57:                                               ; preds = %51
  %58 = load ptr, ptr %50, align 8
  %59 = getelementptr inbounds i8, ptr %58, i64 %56
  tail call void @llvm.memcpy.p0.p0.i64(ptr nonnull align 1 %.188, ptr align 1 %59, i64 %spec.select, i1 false)
  br label %60

60:                                               ; preds = %57, %51
  %61 = getelementptr inbounds i8, ptr %.06287, i64 8
  store ptr %.188, ptr %.06287, align 8
  %.not82 = icmp eq ptr %.16685, null
  br i1 %.not82, label %64, label %62

62:                                               ; preds = %60
  %63 = getelementptr inbounds i8, ptr %.16685, i64 8
  store i64 %spec.select, ptr %.16685, align 8
  br label %64

64:                                               ; preds = %62, %60
  %.2 = phi ptr [ %63, %62 ], [ null, %60 ]
  %65 = getelementptr inbounds i8, ptr %.188, i64 %spec.select
  %66 = getelementptr inbounds i8, ptr %65, i64 1
  store i8 0, ptr %65, align 1
  %indvars.iv.next97 = add nuw nsw i64 %indvars.iv96, 2
  %67 = icmp ult i64 %indvars.iv.next97, %41
  br i1 %67, label %51, label %._crit_edge91

._crit_edge91:                                    ; preds = %64, %49
  %.062.lcssa = phi ptr [ %45, %49 ], [ %61, %64 ]
  store ptr null, ptr %.062.lcssa, align 8
  br label %68

68:                                               ; preds = %._crit_edge, %3, %._crit_edge91
  %.0 = phi i32 [ 0, %._crit_edge91 ], [ %5, %3 ], [ -48, %._crit_edge ]
  ret i32 %.0
}